target datalayout = "e-m:e-p270:32:32-p271:32:32-p272:64:64-i64:64-i128:128-f80:128-n8:16:32:64-S128"
target triple = "x86_64-pc-linux-gnu"

%struct.Node = type { i32 }
%struct.Var = type { %struct.Expr, i32, i16, i32, i32, i32, ptr, i32, i32, i32, i16, i32 }
%struct.Expr = type { i32 }
%struct.PlaceHolderVar = type { %struct.Expr, ptr, ptr, ptr, i32, i32 }
%struct.pull_var_clause_context = type { ptr, i32 }
%struct.Aggref = type { %struct.Expr, i32, i32, i32, i32, i32, ptr, ptr, ptr, ptr, ptr, ptr, i8, i8, i8, i8, i32, i32, i32, i32, i32 }
%struct.GroupingFunc = type { %struct.Expr, ptr, ptr, ptr, i32, i32 }

@.str = private unnamed_addr constant [41 x i8] c"Upper-level Var found where not expected\00", align 1
@.str.1 = private unnamed_addr constant [6 x i8] c"var.c\00", align 1
@__func__.pull_var_clause_walker = private unnamed_addr constant [23 x i8] c"pull_var_clause_walker\00", align 1
@.str.2 = private unnamed_addr constant [44 x i8] c"Upper-level Aggref found where not expected\00", align 1
@.str.3 = private unnamed_addr constant [32 x i8] c"Aggref found where not expected\00", align 1
@.str.4 = private unnamed_addr constant [46 x i8] c"Upper-level GROUPING found where not expected\00", align 1
@.str.5 = private unnamed_addr constant [34 x i8] c"GROUPING found where not expected\00", align 1
@.str.6 = private unnamed_addr constant [36 x i8] c"WindowFunc found where not expected\00", align 1
@.str.7 = private unnamed_addr constant [52 x i8] c"Upper-level PlaceHolderVar found where not expected\00", align 1
@.str.8 = private unnamed_addr constant [40 x i8] c"PlaceHolderVar found where not expected\00", align 1

; Function Attrs: nounwind uwtable
define internal zeroext i1 @pull_var_clause_walker(ptr noundef %0, ptr noundef %1) #0 {
  %3 = alloca i1, align 1
  %4 = alloca ptr, align 8
  %5 = alloca ptr, align 8
  store ptr %0, ptr %4, align 8
  store ptr %1, ptr %5, align 8
  %6 = load ptr, ptr %4, align 8
  %7 = icmp eq ptr %6, null
  br i1 %7, label %8, label %9

8:                                                ; preds = %2
  store i1 false, ptr %3, align 1
  br label %242

9:                                                ; preds = %2
  %10 = load ptr, ptr %4, align 8
  %11 = getelementptr inbounds nuw %struct.Node, ptr %10, i32 0, i32 0
  %12 = load i32, ptr %11, align 4
  %13 = icmp eq i32 %12, 6
  br i1 %13, label %14, label %37

14:                                               ; preds = %9
  %15 = load ptr, ptr %4, align 8
  %16 = getelementptr inbounds nuw %struct.Var, ptr %15, i32 0, i32 7
  %17 = load i32, ptr %16, align 8
  %18 = icmp ne i32 %17, 0
  br i1 %18, label %19, label %29

19:                                               ; preds = %14
  br label %20

20:                                               ; preds = %19
  br i1 true, label %21, label %23

21:                                               ; preds = %20
  %22 = call zeroext i1 @errstart_cold(i32 noundef 21, ptr noundef null) #7
  br i1 %22, label %25, label %27

23:                                               ; preds = %20
  %24 = call zeroext i1 @errstart(i32 noundef 21, ptr noundef null)
  br i1 %24, label %25, label %27

25:                                               ; preds = %23, %21
  %26 = call i32 (ptr, ...) @errmsg_internal(ptr noundef @.str)
  call void @errfinish(ptr noundef @.str.1, i32 noundef 680, ptr noundef @__func__.pull_var_clause_walker)
  br label %27

27:                                               ; preds = %25, %23, %21
  unreachable

28:                                               ; No predecessors!
  br label %29

29:                                               ; preds = %28, %14
  %30 = load ptr, ptr %5, align 8
  %31 = getelementptr inbounds nuw %struct.pull_var_clause_context, ptr %30, i32 0, i32 0
  %32 = load ptr, ptr %31, align 8
  %33 = load ptr, ptr %4, align 8
  %34 = call ptr @lappend(ptr noundef %32, ptr noundef %33)
  %35 = load ptr, ptr %5, align 8
  %36 = getelementptr inbounds nuw %struct.pull_var_clause_context, ptr %35, i32 0, i32 0
  store ptr %34, ptr %36, align 8
  store i1 false, ptr %3, align 1
  br label %242

37:                                               ; preds = %9
  %38 = load ptr, ptr %4, align 8
  %39 = getelementptr inbounds nuw %struct.Node, ptr %38, i32 0, i32 0
  %40 = load i32, ptr %39, align 4
  %41 = icmp eq i32 %40, 9
  br i1 %41, label %42, label %90

42:                                               ; preds = %37
  %43 = load ptr, ptr %4, align 8
  %44 = getelementptr inbounds nuw %struct.Aggref, ptr %43, i32 0, i32 16
  %45 = load i32, ptr %44, align 4
  %46 = icmp ne i32 %45, 0
  br i1 %46, label %47, label %57

47:                                               ; preds = %42
  br label %48

48:                                               ; preds = %47
  br i1 true, label %49, label %51

49:                                               ; preds = %48
  %50 = call zeroext i1 @errstart_cold(i32 noundef 21, ptr noundef null) #7
  br i1 %50, label %53, label %55

51:                                               ; preds = %48
  %52 = call zeroext i1 @errstart(i32 noundef 21, ptr noundef null)
  br i1 %52, label %53, label %55

53:                                               ; preds = %51, %49
  %54 = call i32 (ptr, ...) @errmsg_internal(ptr noundef @.str.2)
  call void @errfinish(ptr noundef @.str.1, i32 noundef 687, ptr noundef @__func__.pull_var_clause_walker)
  br label %55

55:                                               ; preds = %53, %51, %49
  unreachable

56:                                               ; No predecessors!
  br label %57

57:                                               ; preds = %56, %42
  %58 = load ptr, ptr %5, align 8
  %59 = getelementptr inbounds nuw %struct.pull_var_clause_context, ptr %58, i32 0, i32 1
  %60 = load i32, ptr %59, align 8
  %61 = and i32 %60, 1
  %62 = icmp ne i32 %61, 0
  br i1 %62, label %63, label %71

63:                                               ; preds = %57
  %64 = load ptr, ptr %5, align 8
  %65 = getelementptr inbounds nuw %struct.pull_var_clause_context, ptr %64, i32 0, i32 0
  %66 = load ptr, ptr %65, align 8
  %67 = load ptr, ptr %4, align 8
  %68 = call ptr @lappend(ptr noundef %66, ptr noundef %67)
  %69 = load ptr, ptr %5, align 8
  %70 = getelementptr inbounds nuw %struct.pull_var_clause_context, ptr %69, i32 0, i32 0
  store ptr %68, ptr %70, align 8
  store i1 false, ptr %3, align 1
  br label %242

71:                                               ; preds = %57
  %72 = load ptr, ptr %5, align 8
  %73 = getelementptr inbounds nuw %struct.pull_var_clause_context, ptr %72, i32 0, i32 1
  %74 = load i32, ptr %73, align 8
  %75 = and i32 %74, 2
  %76 = icmp ne i32 %75, 0
  br i1 %76, label %77, label %78

77:                                               ; preds = %71
  br label %88

78:                                               ; preds = %71
  br label %79

79:                                               ; preds = %78
  br i1 true, label %80, label %82

80:                                               ; preds = %79
  %81 = call zeroext i1 @errstart_cold(i32 noundef 21, ptr noundef null) #7
  br i1 %81, label %84, label %86

82:                                               ; preds = %79
  %83 = call zeroext i1 @errstart(i32 noundef 21, ptr noundef null)
  br i1 %83, label %84, label %86

84:                                               ; preds = %82, %80
  %85 = call i32 (ptr, ...) @errmsg_internal(ptr noundef @.str.3)
  call void @errfinish(ptr noundef @.str.1, i32 noundef 699, ptr noundef @__func__.pull_var_clause_walker)
  br label %86

86:                                               ; preds = %84, %82, %80
  unreachable

87:                                               ; No predecessors!
  br label %88

88:                                               ; preds = %87, %77
  br label %89

89:                                               ; preds = %88
  br label %237

90:                                               ; preds = %37
  %91 = load ptr, ptr %4, align 8
  %92 = getelementptr inbounds nuw %struct.Node, ptr %91, i32 0, i32 0
  %93 = load i32, ptr %92, align 4
  %94 = icmp eq i32 %93, 10
  br i1 %94, label %95, label %143

95:                                               ; preds = %90
  %96 = load ptr, ptr %4, align 8
  %97 = getelementptr inbounds nuw %struct.GroupingFunc, ptr %96, i32 0, i32 4
  %98 = load i32, ptr %97, align 8
  %99 = icmp ne i32 %98, 0
  br i1 %99, label %100, label %110

100:                                              ; preds = %95
  br label %101

101:                                              ; preds = %100
  br i1 true, label %102, label %104

102:                                              ; preds = %101
  %103 = call zeroext i1 @errstart_cold(i32 noundef 21, ptr noundef null) #7
  br i1 %103, label %106, label %108

104:                                              ; preds = %101
  %105 = call zeroext i1 @errstart(i32 noundef 21, ptr noundef null)
  br i1 %105, label %106, label %108

106:                                              ; preds = %104, %102
  %107 = call i32 (ptr, ...) @errmsg_internal(ptr noundef @.str.4)
  call void @errfinish(ptr noundef @.str.1, i32 noundef 704, ptr noundef @__func__.pull_var_clause_walker)
  br label %108

108:                                              ; preds = %106, %104, %102
  unreachable

109:                                              ; No predecessors!
  br label %110

110:                                              ; preds = %109, %95
  %111 = load ptr, ptr %5, align 8
  %112 = getelementptr inbounds nuw %struct.pull_var_clause_context, ptr %111, i32 0, i32 1
  %113 = load i32, ptr %112, align 8
  %114 = and i32 %113, 1
  %115 = icmp ne i32 %114, 0
  br i1 %115, label %116, label %124

116:                                              ; preds = %110
  %117 = load ptr, ptr %5, align 8
  %118 = getelementptr inbounds nuw %struct.pull_var_clause_context, ptr %117, i32 0, i32 0
  %119 = load ptr, ptr %118, align 8
  %120 = load ptr, ptr %4, align 8
  %121 = call ptr @lappend(ptr noundef %119, ptr noundef %120)
  %122 = load ptr, ptr %5, align 8
  %123 = getelementptr inbounds nuw %struct.pull_var_clause_context, ptr %122, i32 0, i32 0
  store ptr %121, ptr %123, align 8
  store i1 false, ptr %3, align 1
  br label %242

124:                                              ; preds = %110
  %125 = load ptr, ptr %5, align 8
  %126 = getelementptr inbounds nuw %struct.pull_var_clause_context, ptr %125, i32 0, i32 1
  %127 = load i32, ptr %126, align 8
  %128 = and i32 %127, 2
  %129 = icmp ne i32 %128, 0
  br i1 %129, label %130, label %131

130:                                              ; preds = %124
  br label %141

131:                                              ; preds = %124
  br label %132

132:                                              ; preds = %131
  br i1 true, label %133, label %135

133:                                              ; preds = %132
  %134 = call zeroext i1 @errstart_cold(i32 noundef 21, ptr noundef null) #7
  br i1 %134, label %137, label %139

135:                                              ; preds = %132
  %136 = call zeroext i1 @errstart(i32 noundef 21, ptr noundef null)
  br i1 %136, label %137, label %139

137:                                              ; preds = %135, %133
  %138 = call i32 (ptr, ...) @errmsg_internal(ptr noundef @.str.5)
  call void @errfinish(ptr noundef @.str.1, i32 noundef 716, ptr noundef @__func__.pull_var_clause_walker)
  br label %139

139:                                              ; preds = %137, %135, %133
  unreachable

140:                                              ; No predecessors!
  br label %141

141:                                              ; preds = %140, %130
  br label %142

142:                                              ; preds = %141
  br label %236

143:                                              ; preds = %90
  %144 = load ptr, ptr %4, align 8
  %145 = getelementptr inbounds nuw %struct.Node, ptr %144, i32 0, i32 0
  %146 = load i32, ptr %145, align 4
  %147 = icmp eq i32 %146, 11
  br i1 %147, label %148, label %181

148:                                              ; preds = %143
  %149 = load ptr, ptr %5, align 8
  %150 = getelementptr inbounds nuw %struct.pull_var_clause_context, ptr %149, i32 0, i32 1
  %151 = load i32, ptr %150, align 8
  %152 = and i32 %151, 4
  %153 = icmp ne i32 %152, 0
  br i1 %153, label %154, label %162

154:                                              ; preds = %148
  %155 = load ptr, ptr %5, align 8
  %156 = getelementptr inbounds nuw %struct.pull_var_clause_context, ptr %155, i32 0, i32 0
  %157 = load ptr, ptr %156, align 8
  %158 = load ptr, ptr %4, align 8
  %159 = call ptr @lappend(ptr noundef %157, ptr noundef %158)
  %160 = load ptr, ptr %5, align 8
  %161 = getelementptr inbounds nuw %struct.pull_var_clause_context, ptr %160, i32 0, i32 0
  store ptr %159, ptr %161, align 8
  store i1 false, ptr %3, align 1
  br label %242

162:                                              ; preds = %148
  %163 = load ptr, ptr %5, align 8
  %164 = getelementptr inbounds nuw %struct.pull_var_clause_context, ptr %163, i32 0, i32 1
  %165 = load i32, ptr %164, align 8
  %166 = and i32 %165, 8
  %167 = icmp ne i32 %166, 0
  br i1 %167, label %168, label %169

168:                                              ; preds = %162
  br label %179

169:                                              ; preds = %162
  br label %170

170:                                              ; preds = %169
  br i1 true, label %171, label %173

171:                                              ; preds = %170
  %172 = call zeroext i1 @errstart_cold(i32 noundef 21, ptr noundef null) #7
  br i1 %172, label %175, label %177

173:                                              ; preds = %170
  %174 = call zeroext i1 @errstart(i32 noundef 21, ptr noundef null)
  br i1 %174, label %175, label %177

175:                                              ; preds = %173, %171
  %176 = call i32 (ptr, ...) @errmsg_internal(ptr noundef @.str.6)
  call void @errfinish(ptr noundef @.str.1, i32 noundef 732, ptr noundef @__func__.pull_var_clause_walker)
  br label %177

177:                                              ; preds = %175, %173, %171
  unreachable

178:                                              ; No predecessors!
  br label %179

179:                                              ; preds = %178, %168
  br label %180

180:                                              ; preds = %179
  br label %235

181:                                              ; preds = %143
  %182 = load ptr, ptr %4, align 8
  %183 = getelementptr inbounds nuw %struct.Node, ptr %182, i32 0, i32 0
  %184 = load i32, ptr %183, align 4
  %185 = icmp eq i32 %184, 318
  br i1 %185, label %186, label %234

186:                                              ; preds = %181
  %187 = load ptr, ptr %4, align 8
  %188 = getelementptr inbounds nuw %struct.PlaceHolderVar, ptr %187, i32 0, i32 5
  %189 = load i32, ptr %188, align 4
  %190 = icmp ne i32 %189, 0
  br i1 %190, label %191, label %201

191:                                              ; preds = %186
  br label %192

192:                                              ; preds = %191
  br i1 true, label %193, label %195

193:                                              ; preds = %192
  %194 = call zeroext i1 @errstart_cold(i32 noundef 21, ptr noundef null) #7
  br i1 %194, label %197, label %199

195:                                              ; preds = %192
  %196 = call zeroext i1 @errstart(i32 noundef 21, ptr noundef null)
  br i1 %196, label %197, label %199

197:                                              ; preds = %195, %193
  %198 = call i32 (ptr, ...) @errmsg_internal(ptr noundef @.str.7)
  call void @errfinish(ptr noundef @.str.1, i32 noundef 737, ptr noundef @__func__.pull_var_clause_walker)
  br label %199

199:                                              ; preds = %197, %195, %193
  unreachable

200:                                              ; No predecessors!
  br label %201

201:                                              ; preds = %200, %186
  %202 = load ptr, ptr %5, align 8
  %203 = getelementptr inbounds nuw %struct.pull_var_clause_context, ptr %202, i32 0, i32 1
  %204 = load i32, ptr %203, align 8
  %205 = and i32 %204, 16
  %206 = icmp ne i32 %205, 0
  br i1 %206, label %207, label %215

207:                                              ; preds = %201
  %208 = load ptr, ptr %5, align 8
  %209 = getelementptr inbounds nuw %struct.pull_var_clause_context, ptr %208, i32 0, i32 0
  %210 = load ptr, ptr %209, align 8
  %211 = load ptr, ptr %4, align 8
  %212 = call ptr @lappend(ptr noundef %210, ptr noundef %211)
  %213 = load ptr, ptr %5, align 8
  %214 = getelementptr inbounds nuw %struct.pull_var_clause_context, ptr %213, i32 0, i32 0
  store ptr %212, ptr %214, align 8
  store i1 false, ptr %3, align 1
  br label %242

215:                                              ; preds = %201
  %216 = load ptr, ptr %5, align 8
  %217 = getelementptr inbounds nuw %struct.pull_var_clause_context, ptr %216, i32 0, i32 1
  %218 = load i32, ptr %217, align 8
  %219 = and i32 %218, 32
  %220 = icmp ne i32 %219, 0
  br i1 %220, label %221, label %222

221:                                              ; preds = %215
  br label %232

222:                                              ; preds = %215
  br label %223

223:                                              ; preds = %222
  br i1 true, label %224, label %226

224:                                              ; preds = %223
  %225 = call zeroext i1 @errstart_cold(i32 noundef 21, ptr noundef null) #7
  br i1 %225, label %228, label %230

226:                                              ; preds = %223
  %227 = call zeroext i1 @errstart(i32 noundef 21, ptr noundef null)
  br i1 %227, label %228, label %230

228:                                              ; preds = %226, %224
  %229 = call i32 (ptr, ...) @errmsg_internal(ptr noundef @.str.8)
  call void @errfinish(ptr noundef @.str.1, i32 noundef 749, ptr noundef @__func__.pull_var_clause_walker)
  br label %230

230:                                              ; preds = %228, %226, %224
  unreachable

231:                                              ; No predecessors!
  br label %232

232:                                              ; preds = %231, %221
  br label %233

233:                                              ; preds = %232
  br label %234

234:                                              ; preds = %233, %181
  br label %235

235:                                              ; preds = %234, %180
  br label %236

236:                                              ; preds = %235, %142
  br label %237

237:                                              ; preds = %236, %89
  br label %238

238:                                              ; preds = %237
  %239 = load ptr, ptr %4, align 8
  %240 = load ptr, ptr %5, align 8
  %241 = call zeroext i1 @expression_tree_walker_impl(ptr noundef %239, ptr noundef @pull_var_clause_walker, ptr noundef %240)
  store i1 %241, ptr %3, align 1
  br label %242

242:                                              ; preds = %238, %207, %154, %116, %63, %29, %8
  %243 = load i1, ptr %3, align 1
  ret i1 %243
}