; Function Attrs: nounwind uwtable
define internal zeroext i1 @pull_var_clause_walker(ptr noundef %0, ptr noundef %1) #0 {
  %3 = icmp eq ptr %0, null
  br i1 %3, label %83, label %4

4:                                                ; preds = %2
  %5 = load i32, ptr %0, align 4
  switch i32 %5, label %81 [
    i32 6, label %6
    i32 9, label %15
    i32 10, label %33
    i32 11, label %51
    i32 318, label %63
  ]

6:                                                ; preds = %4
  %7 = getelementptr inbounds nuw i8, ptr %0, i64 32
  %8 = load i32, ptr %7, align 8
  %.not48 = icmp eq i32 %8, 0
  br i1 %.not48, label %12, label %9

9:                                                ; preds = %6
  %10 = tail call zeroext i1 @errstart_cold(i32 noundef 21, ptr noundef null) #7
  tail call void @llvm.assume(i1 %10)
  %11 = tail call i32 (ptr, ...) @errmsg_internal(ptr noundef nonnull @.str) #6
  tail call void @errfinish(ptr noundef nonnull @.str.1, i32 noundef 680, ptr noundef nonnull @__func__.pull_var_clause_walker) #6
  unreachable

12:                                               ; preds = %6
  %13 = load ptr, ptr %1, align 8
  %14 = tail call ptr @lappend(ptr noundef %13, ptr noundef nonnull %0) #6
  store ptr %14, ptr %1, align 8
  br label %83

15:                                               ; preds = %4
  %16 = getelementptr inbounds nuw i8, ptr %0, i64 76
  %17 = load i32, ptr %16, align 4
  %.not45 = icmp eq i32 %17, 0
  br i1 %.not45, label %21, label %18

18:                                               ; preds = %15
  %19 = tail call zeroext i1 @errstart_cold(i32 noundef 21, ptr noundef null) #7
  tail call void @llvm.assume(i1 %19)
  %20 = tail call i32 (ptr, ...) @errmsg_internal(ptr noundef nonnull @.str.2) #6
  tail call void @errfinish(ptr noundef nonnull @.str.1, i32 noundef 687, ptr noundef nonnull @__func__.pull_var_clause_walker) #6
  unreachable

21:                                               ; preds = %15
  %22 = getelementptr inbounds nuw i8, ptr %1, i64 8
  %23 = load i32, ptr %22, align 8
  %24 = and i32 %23, 1
  %.not46 = icmp eq i32 %24, 0
  br i1 %.not46, label %28, label %25

25:                                               ; preds = %21
  %26 = load ptr, ptr %1, align 8
  %27 = tail call ptr @lappend(ptr noundef %26, ptr noundef nonnull %0) #6
  store ptr %27, ptr %1, align 8
  br label %83

28:                                               ; preds = %21
  %29 = and i32 %23, 2
  %.not47 = icmp eq i32 %29, 0
  br i1 %.not47, label %30, label %81

30:                                               ; preds = %28
  %31 = tail call zeroext i1 @errstart_cold(i32 noundef 21, ptr noundef null) #7
  tail call void @llvm.assume(i1 %31)
  %32 = tail call i32 (ptr, ...) @errmsg_internal(ptr noundef nonnull @.str.3) #6
  tail call void @errfinish(ptr noundef nonnull @.str.1, i32 noundef 699, ptr noundef nonnull @__func__.pull_var_clause_walker) #6
  unreachable

33:                                               ; preds = %4
  %34 = getelementptr inbounds nuw i8, ptr %0, i64 32
  %35 = load i32, ptr %34, align 8
  %.not42 = icmp eq i32 %35, 0
  br i1 %.not42, label %39, label %36

36:                                               ; preds = %33
  %37 = tail call zeroext i1 @errstart_cold(i32 noundef 21, ptr noundef null) #7
  tail call void @llvm.assume(i1 %37)
  %38 = tail call i32 (ptr, ...) @errmsg_internal(ptr noundef nonnull @.str.4) #6
  tail call void @errfinish(ptr noundef nonnull @.str.1, i32 noundef 704, ptr noundef nonnull @__func__.pull_var_clause_walker) #6
  unreachable

39:                                               ; preds = %33
  %40 = getelementptr inbounds nuw i8, ptr %1, i64 8
  %41 = load i32, ptr %40, align 8
  %42 = and i32 %41, 1
  %.not43 = icmp eq i32 %42, 0
  br i1 %.not43, label %46, label %43

43:                                               ; preds = %39
  %44 = load ptr, ptr %1, align 8
  %45 = tail call ptr @lappend(ptr noundef %44, ptr noundef nonnull %0) #6
  store ptr %45, ptr %1, align 8
  br label %83

46:                                               ; preds = %39
  %47 = and i32 %41, 2
  %.not44 = icmp eq i32 %47, 0
  br i1 %.not44, label %48, label %81

48:                                               ; preds = %46
  %49 = tail call zeroext i1 @errstart_cold(i32 noundef 21, ptr noundef null) #7
  tail call void @llvm.assume(i1 %49)
  %50 = tail call i32 (ptr, ...) @errmsg_internal(ptr noundef nonnull @.str.5) #6
  tail call void @errfinish(ptr noundef nonnull @.str.1, i32 noundef 716, ptr noundef nonnull @__func__.pull_var_clause_walker) #6
  unreachable

51:                                               ; preds = %4
  %52 = getelementptr inbounds nuw i8, ptr %1, i64 8
  %53 = load i32, ptr %52, align 8
  %54 = and i32 %53, 4
  %.not40 = icmp eq i32 %54, 0
  br i1 %.not40, label %58, label %55

55:                                               ; preds = %51
  %56 = load ptr, ptr %1, align 8
  %57 = tail call ptr @lappend(ptr noundef %56, ptr noundef nonnull %0) #6
  store ptr %57, ptr %1, align 8
  br label %83

58:                                               ; preds = %51
  %59 = and i32 %53, 8
  %.not41 = icmp eq i32 %59, 0
  br i1 %.not41, label %60, label %81

60:                                               ; preds = %58
  %61 = tail call zeroext i1 @errstart_cold(i32 noundef 21, ptr noundef null) #7
  tail call void @llvm.assume(i1 %61)
  %62 = tail call i32 (ptr, ...) @errmsg_internal(ptr noundef nonnull @.str.6) #6
  tail call void @errfinish(ptr noundef nonnull @.str.1, i32 noundef 732, ptr noundef nonnull @__func__.pull_var_clause_walker) #6
  unreachable

63:                                               ; preds = %4
  %64 = getelementptr inbounds nuw i8, ptr %0, i64 36
  %65 = load i32, ptr %64, align 4
  %.not = icmp eq i32 %65, 0
  br i1 %.not, label %69, label %66

66:                                               ; preds = %63
  %67 = tail call zeroext i1 @errstart_cold(i32 noundef 21, ptr noundef null) #7
  tail call void @llvm.assume(i1 %67)
  %68 = tail call i32 (ptr, ...) @errmsg_internal(ptr noundef nonnull @.str.7) #6
  tail call void @errfinish(ptr noundef nonnull @.str.1, i32 noundef 737, ptr noundef nonnull @__func__.pull_var_clause_walker) #6
  unreachable

69:                                               ; preds = %63
  %70 = getelementptr inbounds nuw i8, ptr %1, i64 8
  %71 = load i32, ptr %70, align 8
  %72 = and i32 %71, 16
  %.not38 = icmp eq i32 %72, 0
  br i1 %.not38, label %76, label %73

73:                                               ; preds = %69
  %74 = load ptr, ptr %1, align 8
  %75 = tail call ptr @lappend(ptr noundef %74, ptr noundef nonnull %0) #6
  store ptr %75, ptr %1, align 8
  br label %83

76:                                               ; preds = %69
  %77 = and i32 %71, 32
  %.not39 = icmp eq i32 %77, 0
  br i1 %.not39, label %78, label %81

78:                                               ; preds = %76
  %79 = tail call zeroext i1 @errstart_cold(i32 noundef 21, ptr noundef null) #7
  tail call void @llvm.assume(i1 %79)
  %80 = tail call i32 (ptr, ...) @errmsg_internal(ptr noundef nonnull @.str.8) #6
  tail call void @errfinish(ptr noundef nonnull @.str.1, i32 noundef 749, ptr noundef nonnull @__func__.pull_var_clause_walker) #6
  unreachable

81:                                               ; preds = %4, %28, %58, %76, %46
  %82 = tail call zeroext i1 @expression_tree_walker_impl(ptr noundef nonnull %0, ptr noundef nonnull @pull_var_clause_walker, ptr noundef %1) #6
  br label %83

83:                                               ; preds = %2, %81, %73, %55, %43, %25, %12
  %.0 = phi i1 [ false, %12 ], [ false, %25 ], [ %82, %81 ], [ false, %43 ], [ false, %55 ], [ false, %73 ], [ false, %2 ]
  ret i1 %.0
}